; Function Attrs: mustprogress uwtable
define hidden noundef zeroext i1 @_ZN4cvc58internal6theory11quantifiers16SygusGrammarNorm11TransfChain4isIdENS0_8TypeNodeENS0_12NodeTemplateILb1EEES7_(ptr noundef nonnull %tn, ptr nocapture noundef readonly %op, ptr nocapture noundef readonly %n) local_unnamed_addr #3 align 2 personality ptr @__gxx_personality_v0 {
entry:
  %ref.tmp = alloca %"class.cvc5::internal::NodeTemplate", align 8
  %agg.tmp3 = alloca %"class.cvc5::internal::TypeNode", align 8
  %call = tail call noundef zeroext i1 @_ZNK4cvc58internal8TypeNode9isIntegerEv(ptr noundef nonnull align 8 dereferenceable(8) %tn)
  br i1 %call, label %land.lhs.true, label %return

land.lhs.true:                                    ; preds = %entry
  %call1 = tail call noundef ptr @_ZN4cvc58internal11NodeManager9currentNMEv()
  %0 = load ptr, ptr %op, align 8
  %call.i3 = tail call noundef i32 @_ZN4cvc58internal4kind14operatorToKindEPNS0_4expr9NodeValueE(ptr noundef %0)
  %cmp = icmp eq i32 %call.i3, 36
  br i1 %cmp, label %land.rhs, label %return

land.rhs:                                         ; preds = %land.lhs.true
  %1 = load ptr, ptr %tn, align 8
  store ptr %1, ptr %agg.tmp3, align 8
  %bf.load.i.i = load i64, ptr %1, align 8
  %bf.lshr.i.i = lshr i64 %bf.load.i.i, 40
  %2 = trunc i64 %bf.lshr.i.i to i32
  %bf.cast.i.i = and i32 %2, 1048575
  %cmp.i.i = icmp ult i32 %bf.cast.i.i, 1048574
  br i1 %cmp.i.i, label %if.then.i.i, label %if.else.i.i

if.then.i.i:                                      ; preds = %land.rhs
  %bf.value.i.i = add i64 %bf.load.i.i, 1099511627776
  %bf.shl.i.i = and i64 %bf.value.i.i, 1152920405095219200
  %bf.clear7.i.i = and i64 %bf.load.i.i, -1152920405095219201
  %bf.set.i.i = or disjoint i64 %bf.shl.i.i, %bf.clear7.i.i
  store i64 %bf.set.i.i, ptr %1, align 8
  br label %invoke.cont4

if.else.i.i:                                      ; preds = %land.rhs
  %cmp12.i.i = icmp eq i32 %bf.cast.i.i, 1048574
  br i1 %cmp12.i.i, label %if.then13.i.i, label %invoke.cont4

if.then13.i.i:                                    ; preds = %if.else.i.i
  %bf.set23.i.i = or i64 %bf.load.i.i, 1152920405095219200
  store i64 %bf.set23.i.i, ptr %1, align 8
  tail call void @_ZN4cvc58internal4expr9NodeValue20markRefCountMaxedOutEv(ptr noundef nonnull align 8 dereferenceable(16) %1)
  br label %invoke.cont4

invoke.cont4:                                     ; preds = %if.then13.i.i, %if.else.i.i, %if.then.i.i
  invoke void @_ZN4cvc58internal6theory11quantifiers8TermUtil11mkTypeValueENS0_8TypeNodeEi(ptr nonnull sret(%"class.cvc5::internal::NodeTemplate") align 8 %ref.tmp, ptr noundef nonnull %agg.tmp3, i32 noundef 0)
          to label %cleanup.action unwind label %lpad6

cleanup.action:                                   ; preds = %invoke.cont4
  %3 = load ptr, ptr %n, align 8
  %4 = load ptr, ptr %ref.tmp, align 8
  %cmp.i = icmp eq ptr %3, %4
  %bf.load.i.i4 = load i64, ptr %4, align 8
  %5 = and i64 %bf.load.i.i4, 1152920405095219200
  %cmp.not.i.i = icmp eq i64 %5, 1152920405095219200
  br i1 %cmp.not.i.i, label %_ZN4cvc58internal12NodeTemplateILb1EED2Ev.exit, label %if.then.i.i5

if.then.i.i5:                                     ; preds = %cleanup.action
  %bf.value.i.i6 = add i64 %bf.load.i.i4, 1152920405095219200
  %bf.shl.i.i7 = and i64 %bf.value.i.i6, 1152920405095219200
  %bf.clear7.i.i8 = and i64 %bf.load.i.i4, -1152920405095219201
  %bf.set.i.i9 = or disjoint i64 %bf.shl.i.i7, %bf.clear7.i.i8
  store i64 %bf.set.i.i9, ptr %4, align 8
  %cmp12.i.i10 = icmp eq i64 %bf.shl.i.i7, 0
  br i1 %cmp12.i.i10, label %if.then13.i.i11, label %_ZN4cvc58internal12NodeTemplateILb1EED2Ev.exit

if.then13.i.i11:                                  ; preds = %if.then.i.i5
  invoke void @_ZN4cvc58internal4expr9NodeValue15markForDeletionEv(ptr noundef nonnull align 8 dereferenceable(16) %4)
          to label %_ZN4cvc58internal12NodeTemplateILb1EED2Ev.exit unwind label %terminate.lpad.i

terminate.lpad.i:                                 ; preds = %if.then13.i.i11
  %6 = landingpad { ptr, i32 }
          catch ptr null
  %7 = extractvalue { ptr, i32 } %6, 0
  call void @__clang_call_terminate(ptr %7) #18
  unreachable

_ZN4cvc58internal12NodeTemplateILb1EED2Ev.exit:   ; preds = %cleanup.action, %if.then.i.i5, %if.then13.i.i11
  %8 = load ptr, ptr %agg.tmp3, align 8
  %bf.load.i.i12 = load i64, ptr %8, align 8
  %9 = and i64 %bf.load.i.i12, 1152920405095219200
  %cmp.not.i.i13 = icmp eq i64 %9, 1152920405095219200
  br i1 %cmp.not.i.i13, label %return, label %if.then.i.i14

if.then.i.i14:                                    ; preds = %_ZN4cvc58internal12NodeTemplateILb1EED2Ev.exit
  %bf.value.i.i15 = add i64 %bf.load.i.i12, 1152920405095219200
  %bf.shl.i.i16 = and i64 %bf.value.i.i15, 1152920405095219200
  %bf.clear7.i.i17 = and i64 %bf.load.i.i12, -1152920405095219201
  %bf.set.i.i18 = or disjoint i64 %bf.shl.i.i16, %bf.clear7.i.i17
  store i64 %bf.set.i.i18, ptr %8, align 8
  %cmp12.i.i19 = icmp eq i64 %bf.shl.i.i16, 0
  br i1 %cmp12.i.i19, label %if.then13.i.i20, label %return

if.then13.i.i20:                                  ; preds = %if.then.i.i14
  invoke void @_ZN4cvc58internal4expr9NodeValue15markForDeletionEv(ptr noundef nonnull align 8 dereferenceable(16) %8)
          to label %return unwind label %terminate.lpad.i21

terminate.lpad.i21:                               ; preds = %if.then13.i.i20
  %10 = landingpad { ptr, i32 }
          catch ptr null
  %11 = extractvalue { ptr, i32 } %10, 0
  call void @__clang_call_terminate(ptr %11) #18
  unreachable

lpad6:                                            ; preds = %invoke.cont4
  %12 = landingpad { ptr, i32 }
          cleanup
  call void @_ZN4cvc58internal8TypeNodeD2Ev(ptr noundef nonnull align 8 dereferenceable(8) %agg.tmp3) #16
  resume { ptr, i32 } %12

return:                                           ; preds = %_ZN4cvc58internal12NodeTemplateILb1EED2Ev.exit, %if.then.i.i14, %if.then13.i.i20, %land.lhs.true, %entry
  %13 = phi i1 [ false, %entry ], [ false, %land.lhs.true ], [ %cmp.i, %if.then13.i.i20 ], [ %cmp.i, %if.then.i.i14 ], [ %cmp.i, %_ZN4cvc58internal12NodeTemplateILb1EED2Ev.exit ]
  ret i1 %13
}